; ModuleID = 'source-C-CXX/12/1651.cpp'
source_filename = "source-C-CXX/12/1651.cpp"
target datalayout = "e-m:e-p270:32:32-p271:32:32-p272:64:64-i64:64-f80:128-n8:16:32:64-S128"
target triple = "x86_64-pc-linux-gnu"

%"class.std::ios_base::Init" = type { i8 }
%"class.std::basic_istream" = type { i32 (...)**, i64, %"class.std::basic_ios" }
%"class.std::basic_ios" = type { %"class.std::ios_base", %"class.std::basic_ostream"*, i8, i8, %"class.std::basic_streambuf"*, %"class.std::ctype"*, %"class.std::num_put"*, %"class.std::num_get"* }
%"class.std::ios_base" = type { i32 (...)**, i64, i64, i32, i32, i32, %"struct.std::ios_base::_Callback_list"*, %"struct.std::ios_base::_Words", [8 x %"struct.std::ios_base::_Words"], i32, %"struct.std::ios_base::_Words"*, %"class.std::locale" }
%"struct.std::ios_base::_Callback_list" = type { %"struct.std::ios_base::_Callback_list"*, void (i32, %"class.std::ios_base"*, i32)*, i32, i32 }
%"struct.std::ios_base::_Words" = type { i8*, i64 }
%"class.std::locale" = type { %"class.std::locale::_Impl"* }
%"class.std::locale::_Impl" = type { i32, %"class.std::locale::facet"**, i64, %"class.std::locale::facet"**, i8** }
%"class.std::locale::facet" = type <{ i32 (...)**, i32, [4 x i8] }>
%"class.std::basic_ostream" = type { i32 (...)**, %"class.std::basic_ios" }
%"class.std::basic_streambuf" = type { i32 (...)**, i8*, i8*, i8*, i8*, i8*, i8*, %"class.std::locale" }
%"class.std::ctype" = type <{ %"class.std::locale::facet.base", [4 x i8], %struct.__locale_struct*, i8, [7 x i8], i32*, i32*, i16*, i8, [256 x i8], [256 x i8], i8, [6 x i8] }>
%"class.std::locale::facet.base" = type <{ i32 (...)**, i32 }>
%struct.__locale_struct = type { [13 x %struct.__locale_data*], i16*, i32*, i32*, [13 x i8*] }
%struct.__locale_data = type opaque
%"class.std::num_put" = type { %"class.std::locale::facet.base", [4 x i8] }
%"class.std::num_get" = type { %"class.std::locale::facet.base", [4 x i8] }

@_ZStL8__ioinit = internal global %"class.std::ios_base::Init" zeroinitializer, align 1
@__dso_handle = external hidden global i8
@_ZSt3cin = external global %"class.std::basic_istream", align 8
@_ZSt4cout = external global %"class.std::basic_ostream", align 8
@.str = private unnamed_addr constant [2 x i8] c" \00", align 1
@llvm.global_ctors = appending global [1 x { i32, void ()*, i8* }] [{ i32, void ()*, i8* } { i32 65535, void ()* @_GLOBAL__sub_I_1651.cpp, i8* null }]

declare void @_ZNSt8ios_base4InitC1Ev(%"class.std::ios_base::Init"* nonnull align 1 dereferenceable(1)) unnamed_addr #0

; Function Attrs: nounwind
declare void @_ZNSt8ios_base4InitD1Ev(%"class.std::ios_base::Init"* nonnull align 1 dereferenceable(1)) unnamed_addr #1

; Function Attrs: nofree nounwind
declare i32 @__cxa_atexit(void (i8*)*, i8*, i8*) local_unnamed_addr #2

; Function Attrs: mustprogress norecurse sspstrong uwtable
define dso_local i32 @main() local_unnamed_addr #3 {
  %1 = alloca i32, align 4
  %2 = alloca [100 x i32], align 16
  %3 = bitcast i32* %1 to i8*
  call void @llvm.lifetime.start.p0i8(i64 4, i8* nonnull %3) #7
  %4 = call nonnull align 8 dereferenceable(16) %"class.std::basic_istream"* @_ZNSirsERi(%"class.std::basic_istream"* nonnull align 8 dereferenceable(16) @_ZSt3cin, i32* nonnull align 4 dereferenceable(4) %1)
  %5 = load i32, i32* %1, align 4, !tbaa !5
  %6 = zext i32 %5 to i64
  %7 = call i8* @llvm.stacksave()
  %8 = alloca i32, i64 %6, align 16
  %9 = bitcast [100 x i32]* %2 to i8*
  call void @llvm.lifetime.start.p0i8(i64 400, i8* nonnull %9) #7
  %10 = load i32, i32* %1, align 4, !tbaa !5
  %11 = icmp sgt i32 %10, 0
  br i1 %11, label %16, label %103

12:                                               ; preds = %16
  %13 = icmp sgt i32 %21, 0
  br i1 %13, label %14, label %103

14:                                               ; preds = %12
  %15 = zext i32 %21 to i64
  br label %24

16:                                               ; preds = %0, %16
  %17 = phi i64 [ %20, %16 ], [ 0, %0 ]
  %18 = getelementptr inbounds i32, i32* %8, i64 %17
  %19 = call nonnull align 8 dereferenceable(16) %"class.std::basic_istream"* @_ZNSirsERi(%"class.std::basic_istream"* nonnull align 8 dereferenceable(16) @_ZSt3cin, i32* nonnull align 4 dereferenceable(4) %18)
  %20 = add nuw nsw i64 %17, 1
  %21 = load i32, i32* %1, align 4, !tbaa !5
  %22 = sext i32 %21 to i64
  %23 = icmp slt i64 %20, %22
  br i1 %23, label %16, label %12, !llvm.loop !9

24:                                               ; preds = %14, %91
  %25 = phi i64 [ 0, %14 ], [ %93, %91 ]
  %26 = phi i32 [ 0, %14 ], [ %92, %91 ]
  %27 = icmp eq i64 %25, 0
  br i1 %27, label %85, label %28

28:                                               ; preds = %24
  %29 = add nsw i64 %25, -1
  %30 = getelementptr inbounds i32, i32* %8, i64 %25
  %31 = load i32, i32* %30, align 4, !tbaa !5
  %32 = and i64 %25, 3
  %33 = icmp ult i64 %29, 3
  br i1 %33, label %66, label %34

34:                                               ; preds = %28
  %35 = and i64 %25, 9223372036854775804
  br label %40

36:                                               ; preds = %91
  %37 = icmp sgt i32 %92, 1
  br i1 %37, label %38, label %103

38:                                               ; preds = %36
  %39 = zext i32 %92 to i64
  br label %95

40:                                               ; preds = %40, %34
  %41 = phi i64 [ 0, %34 ], [ %63, %40 ]
  %42 = phi i32 [ 1, %34 ], [ %62, %40 ]
  %43 = phi i64 [ %35, %34 ], [ %64, %40 ]
  %44 = getelementptr inbounds i32, i32* %8, i64 %41
  %45 = load i32, i32* %44, align 16, !tbaa !5
  %46 = icmp eq i32 %31, %45
  %47 = or i64 %41, 1
  %48 = getelementptr inbounds i32, i32* %8, i64 %47
  %49 = load i32, i32* %48, align 4, !tbaa !5
  %50 = icmp eq i32 %31, %49
  %51 = or i64 %41, 2
  %52 = getelementptr inbounds i32, i32* %8, i64 %51
  %53 = load i32, i32* %52, align 8, !tbaa !5
  %54 = icmp eq i32 %31, %53
  %55 = or i64 %41, 3
  %56 = getelementptr inbounds i32, i32* %8, i64 %55
  %57 = load i32, i32* %56, align 4, !tbaa !5
  %58 = icmp eq i32 %31, %57
  %59 = select i1 %58, i1 true, i1 %54
  %60 = select i1 %59, i1 true, i1 %50
  %61 = select i1 %60, i1 true, i1 %46
  %62 = select i1 %61, i32 0, i32 %42
  %63 = add nuw nsw i64 %41, 4
  %64 = add i64 %43, -4
  %65 = icmp eq i64 %64, 0
  br i1 %65, label %66, label %40, !llvm.loop !11

66:                                               ; preds = %40, %28
  %67 = phi i32 [ undef, %28 ], [ %62, %40 ]
  %68 = phi i64 [ 0, %28 ], [ %63, %40 ]
  %69 = phi i32 [ 1, %28 ], [ %62, %40 ]
  %70 = icmp eq i64 %32, 0
  br i1 %70, label %82, label %71

71:                                               ; preds = %66, %71
  %72 = phi i64 [ %79, %71 ], [ %68, %66 ]
  %73 = phi i32 [ %78, %71 ], [ %69, %66 ]
  %74 = phi i64 [ %80, %71 ], [ %32, %66 ]
  %75 = getelementptr inbounds i32, i32* %8, i64 %72
  %76 = load i32, i32* %75, align 4, !tbaa !5
  %77 = icmp eq i32 %31, %76
  %78 = select i1 %77, i32 0, i32 %73
  %79 = add nuw nsw i64 %72, 1
  %80 = add i64 %74, -1
  %81 = icmp eq i64 %80, 0
  br i1 %81, label %82, label %71, !llvm.loop !12

82:                                               ; preds = %71, %66
  %83 = phi i32 [ %67, %66 ], [ %78, %71 ]
  %84 = icmp eq i32 %83, 0
  br i1 %84, label %91, label %85

85:                                               ; preds = %24, %82
  %86 = add nsw i32 %26, 1
  %87 = getelementptr inbounds i32, i32* %8, i64 %25
  %88 = load i32, i32* %87, align 4, !tbaa !5
  %89 = sext i32 %86 to i64
  %90 = getelementptr inbounds [100 x i32], [100 x i32]* %2, i64 0, i64 %89
  store i32 %88, i32* %90, align 4, !tbaa !5
  br label %91

91:                                               ; preds = %85, %82
  %92 = phi i32 [ %86, %85 ], [ %26, %82 ]
  %93 = add nuw nsw i64 %25, 1
  %94 = icmp eq i64 %93, %15
  br i1 %94, label %36, label %24, !llvm.loop !14

95:                                               ; preds = %38, %95
  %96 = phi i64 [ 1, %38 ], [ %101, %95 ]
  %97 = getelementptr inbounds [100 x i32], [100 x i32]* %2, i64 0, i64 %96
  %98 = load i32, i32* %97, align 4, !tbaa !5
  %99 = call nonnull align 8 dereferenceable(8) %"class.std::basic_ostream"* @_ZNSolsEi(%"class.std::basic_ostream"* nonnull align 8 dereferenceable(8) @_ZSt4cout, i32 %98)
  %100 = call nonnull align 8 dereferenceable(8) %"class.std::basic_ostream"* @_ZSt16__ostream_insertIcSt11char_traitsIcEERSt13basic_ostreamIT_T0_ES6_PKS3_l(%"class.std::basic_ostream"* nonnull align 8 dereferenceable(8) %99, i8* nonnull getelementptr inbounds ([2 x i8], [2 x i8]* @.str, i64 0, i64 0), i64 1)
  %101 = add nuw nsw i64 %96, 1
  %102 = icmp eq i64 %101, %39
  br i1 %102, label %103, label %95, !llvm.loop !15

103:                                              ; preds = %95, %0, %12, %36
  %104 = phi i32 [ %92, %36 ], [ 0, %12 ], [ 0, %0 ], [ %92, %95 ]
  %105 = sext i32 %104 to i64
  %106 = getelementptr inbounds [100 x i32], [100 x i32]* %2, i64 0, i64 %105
  %107 = load i32, i32* %106, align 4, !tbaa !5
  %108 = call nonnull align 8 dereferenceable(8) %"class.std::basic_ostream"* @_ZNSolsEi(%"class.std::basic_ostream"* nonnull align 8 dereferenceable(8) @_ZSt4cout, i32 %107)
  call void @llvm.lifetime.end.p0i8(i64 400, i8* nonnull %9) #7
  call void @llvm.stackrestore(i8* %7)
  call void @llvm.lifetime.end.p0i8(i64 4, i8* nonnull %3) #7
  ret i32 0
}

; Function Attrs: argmemonly mustprogress nofree nosync nounwind willreturn
declare void @llvm.lifetime.start.p0i8(i64 immarg, i8* nocapture) #4

declare nonnull align 8 dereferenceable(16) %"class.std::basic_istream"* @_ZNSirsERi(%"class.std::basic_istream"* nonnull align 8 dereferenceable(16), i32* nonnull align 4 dereferenceable(4)) local_unnamed_addr #0

; Function Attrs: mustprogress nofree nosync nounwind willreturn
declare i8* @llvm.stacksave() #5

declare nonnull align 8 dereferenceable(8) %"class.std::basic_ostream"* @_ZNSolsEi(%"class.std::basic_ostream"* nonnull align 8 dereferenceable(8), i32) local_unnamed_addr #0

; Function Attrs: argmemonly mustprogress nofree nosync nounwind willreturn
declare void @llvm.lifetime.end.p0i8(i64 immarg, i8* nocapture) #4

; Function Attrs: mustprogress nofree nosync nounwind willreturn
declare void @llvm.stackrestore(i8*) #5

declare nonnull align 8 dereferenceable(8) %"class.std::basic_ostream"* @_ZSt16__ostream_insertIcSt11char_traitsIcEERSt13basic_ostreamIT_T0_ES6_PKS3_l(%"class.std::basic_ostream"* nonnull align 8 dereferenceable(8), i8*, i64) local_unnamed_addr #0

; Function Attrs: sspstrong uwtable
define internal void @_GLOBAL__sub_I_1651.cpp() #6 section ".text.startup" {
  tail call void @_ZNSt8ios_base4InitC1Ev(%"class.std::ios_base::Init"* nonnull align 1 dereferenceable(1) @_ZStL8__ioinit)
  %1 = tail call i32 @__cxa_atexit(void (i8*)* bitcast (void (%"class.std::ios_base::Init"*)* @_ZNSt8ios_base4InitD1Ev to void (i8*)*), i8* getelementptr inbounds (%"class.std::ios_base::Init", %"class.std::ios_base::Init"* @_ZStL8__ioinit, i64 0, i32 0), i8* nonnull @__dso_handle) #7
  ret void
}


!llvm.module.flags = !{!0, !1, !2, !3}
!llvm.ident = !{!4}

!0 = !{i32 1, !"wchar_size", i32 4}
!1 = !{i32 7, !"PIC Level", i32 2}
!2 = !{i32 7, !"PIE Level", i32 2}
!3 = !{i32 7, !"uwtable", i32 1}
!4 = !{!"clang version 13.0.0"}
!5 = !{!6, !6, i64 0}
!6 = !{!"int", !7, i64 0}
!7 = !{!"omnipotent char", !8, i64 0}
!8 = !{!"Simple C++ TBAA"}
!9 = distinct !{!9, !10}
!10 = !{!"llvm.loop.mustprogress"}
!11 = distinct !{!11, !10}
!12 = distinct !{!12, !13}
!13 = !{!"llvm.loop.unroll.disable"}
!14 = distinct !{!14, !10}
!15 = distinct !{!15, !10}
